target datalayout = "e-m:e-p270:32:32-p271:32:32-p272:64:64-i64:64-i128:128-f80:128-n8:16:32:64-S128"
target triple = "x86_64-pc-linux-gnu"

%struct.SDL_Renderer = type { ptr, ptr, ptr, ptr, ptr, ptr, ptr, ptr, ptr, ptr, ptr, ptr, ptr, ptr, ptr, ptr, ptr, ptr, ptr, ptr, ptr, ptr, ptr, ptr, ptr, ptr, ptr, ptr, ptr, ptr, i32, i8, ptr, i8, i8, i8, i64, i64, ptr, %struct.SDL_RenderViewState, %struct.SDL_FPoint, i32, i32, ptr, ptr, ptr, i32, float, float, float, float, %struct.SDL_FColor, i32, i32, i32, ptr, ptr, ptr, ptr, i32, %struct.SDL_FColor, float, %struct.SDL_Rect, %struct.SDL_Rect, i8, i8, i8, i8, ptr, i64, i64, i8, ptr, ptr, i32, ptr, i8, ptr, ptr }
%struct.SDL_RenderViewState = type { i32, i32, %struct.SDL_Rect, %struct.SDL_Rect, %struct.SDL_Rect, %struct.SDL_Rect, i8, %struct.SDL_FPoint, i32, i32, i32, %struct.SDL_FRect, %struct.SDL_FRect, %struct.SDL_FPoint, %struct.SDL_FPoint, %struct.SDL_FPoint }
%struct.SDL_FRect = type { float, float, float, float }
%struct.SDL_FPoint = type { float, float }
%struct.SDL_FColor = type { float, float, float, float }
%struct.SDL_Rect = type { i32, i32, i32, i32 }

@.str = private unnamed_addr constant [29 x i8] c"SDL.renderer.texture_formats\00", align 1
@.str.2 = private unnamed_addr constant [26 x i8] c"Parameter '%s' is invalid\00", align 1
@.str.5 = private unnamed_addr constant [9 x i8] c"renderer\00", align 1
@.str.29 = private unnamed_addr constant [56 x i8] c"Renderer's window has been destroyed, can't use further\00", align 1

; Function Attrs: nounwind uwtable
define hidden i32 @SDL_GetRendererProperties_REAL(ptr noundef %0) #0 {
  %2 = alloca i32, align 4
  %3 = alloca ptr, align 8
  store ptr %0, ptr %3, align 8
  %4 = load ptr, ptr %3, align 8
  %5 = call zeroext i1 @SDL_ObjectValid(ptr noundef %4, i32 noundef 2)
  br i1 %5, label %8, label %6

6:                                                ; preds = %1
  %7 = call zeroext i1 (ptr, ...) @SDL_SetError_REAL(ptr noundef @.str.2, ptr noundef @.str.5)
  store i32 0, ptr %2, align 4
  br label %28

8:                                                ; preds = %1
  %9 = load ptr, ptr %3, align 8
  %10 = getelementptr inbounds nuw %struct.SDL_Renderer, ptr %9, i32 0, i32 76
  %11 = load i8, ptr %10, align 8, !range !5, !noundef !6
  %12 = trunc i8 %11 to i1
  br i1 %12, label %13, label %15

13:                                               ; preds = %8
  %14 = call zeroext i1 (ptr, ...) @SDL_SetError_REAL(ptr noundef @.str.29)
  store i32 0, ptr %2, align 4
  br label %28

15:                                               ; preds = %8
  %16 = load ptr, ptr %3, align 8
  %17 = getelementptr inbounds nuw %struct.SDL_Renderer, ptr %16, i32 0, i32 74
  %18 = load i32, ptr %17, align 8
  %19 = icmp eq i32 %18, 0
  br i1 %19, label %20, label %24

20:                                               ; preds = %15
  %21 = call i32 @SDL_CreateProperties_REAL()
  %22 = load ptr, ptr %3, align 8
  %23 = getelementptr inbounds nuw %struct.SDL_Renderer, ptr %22, i32 0, i32 74
  store i32 %21, ptr %23, align 8
  br label %24

24:                                               ; preds = %20, %15
  %25 = load ptr, ptr %3, align 8
  %26 = getelementptr inbounds nuw %struct.SDL_Renderer, ptr %25, i32 0, i32 74
  %27 = load i32, ptr %26, align 8
  store i32 %27, ptr %2, align 4
  br label %28

28:                                               ; preds = %24, %13, %6
  %29 = load i32, ptr %2, align 4
  ret i32 %29
}

; Function Attrs: nounwind uwtable
define hidden zeroext i1 @SDL_AddSupportedTextureFormat(ptr noundef %0, i32 noundef %1) #0 {
  %3 = alloca i1, align 1
  %4 = alloca ptr, align 8
  %5 = alloca i32, align 4
  %6 = alloca ptr, align 8
  %7 = alloca i32, align 4
  store ptr %0, ptr %4, align 8
  store i32 %1, ptr %5, align 4
  call void @llvm.lifetime.start.p0(i64 8, ptr %6) #10
  %8 = load ptr, ptr %4, align 8
  %9 = getelementptr inbounds nuw %struct.SDL_Renderer, ptr %8, i32 0, i32 29
  %10 = load ptr, ptr %9, align 8
  %11 = load ptr, ptr %4, align 8
  %12 = getelementptr inbounds nuw %struct.SDL_Renderer, ptr %11, i32 0, i32 30
  %13 = load i32, ptr %12, align 8
  %14 = add nsw i32 %13, 2
  %15 = sext i32 %14 to i64
  %16 = mul i64 %15, 4
  %17 = call ptr @SDL_realloc_REAL(ptr noundef %10, i64 noundef %16) #11
  store ptr %17, ptr %6, align 8
  %18 = load ptr, ptr %6, align 8
  %19 = icmp ne ptr %18, null
  br i1 %19, label %21, label %20

20:                                               ; preds = %2
  store i1 false, ptr %3, align 1
  store i32 1, ptr %7, align 4
  br label %43

21:                                               ; preds = %2
  %22 = load i32, ptr %5, align 4
  %23 = load ptr, ptr %6, align 8
  %24 = load ptr, ptr %4, align 8
  %25 = getelementptr inbounds nuw %struct.SDL_Renderer, ptr %24, i32 0, i32 30
  %26 = load i32, ptr %25, align 8
  %27 = add nsw i32 %26, 1
  store i32 %27, ptr %25, align 8
  %28 = sext i32 %26 to i64
  %29 = getelementptr inbounds i32, ptr %23, i64 %28
  store i32 %22, ptr %29, align 4
  %30 = load ptr, ptr %6, align 8
  %31 = load ptr, ptr %4, align 8
  %32 = getelementptr inbounds nuw %struct.SDL_Renderer, ptr %31, i32 0, i32 30
  %33 = load i32, ptr %32, align 8
  %34 = sext i32 %33 to i64
  %35 = getelementptr inbounds i32, ptr %30, i64 %34
  store i32 0, ptr %35, align 4
  %36 = load ptr, ptr %6, align 8
  %37 = load ptr, ptr %4, align 8
  %38 = getelementptr inbounds nuw %struct.SDL_Renderer, ptr %37, i32 0, i32 29
  store ptr %36, ptr %38, align 8
  %39 = load ptr, ptr %4, align 8
  %40 = call i32 @SDL_GetRendererProperties_REAL(ptr noundef %39)
  %41 = load ptr, ptr %6, align 8
  %42 = call zeroext i1 @SDL_SetPointerProperty_REAL(i32 noundef %40, ptr noundef @.str, ptr noundef %41)
  store i1 true, ptr %3, align 1
  store i32 1, ptr %7, align 4
  br label %43

43:                                               ; preds = %21, %20
  call void @llvm.lifetime.end.p0(i64 8, ptr %6) #10
  %44 = load i1, ptr %3, align 1
  ret i1 %44
}