; Function Attrs: nounwind uwtable
define hidden noundef zeroext i1 @SDL_AddSupportedTextureFormat(ptr noundef %0, i32 noundef %1) local_unnamed_addr #0 {
  %3 = getelementptr inbounds nuw i8, ptr %0, i64 232
  %4 = load ptr, ptr %3, align 8
  %5 = getelementptr inbounds nuw i8, ptr %0, i64 240
  %6 = load i32, ptr %5, align 8
  %7 = add nsw i32 %6, 2
  %8 = sext i32 %7 to i64
  %9 = shl nsw i64 %8, 2
  %10 = tail call ptr @SDL_realloc_REAL(ptr noundef %4, i64 noundef %9) #16
  %.not = icmp ne ptr %10, null
  br i1 %.not, label %11, label %35

11:                                               ; preds = %2
  %12 = load i32, ptr %5, align 8
  %13 = add nsw i32 %12, 1
  store i32 %13, ptr %5, align 8
  %14 = sext i32 %12 to i64
  %15 = getelementptr inbounds i32, ptr %10, i64 %14
  store i32 %1, ptr %15, align 4
  %16 = load i32, ptr %5, align 8
  %17 = sext i32 %16 to i64
  %18 = getelementptr inbounds i32, ptr %10, i64 %17
  store i32 0, ptr %18, align 4
  store ptr %10, ptr %3, align 8
  %19 = tail call zeroext i1 @SDL_ObjectValid(ptr noundef nonnull %0, i32 noundef 2) #15
  br i1 %19, label %22, label %20

20:                                               ; preds = %11
  %21 = tail call zeroext i1 (ptr, ...) @SDL_SetError_REAL(ptr noundef nonnull @.str.2, ptr noundef nonnull @.str.5) #15
  br label %SDL_GetRendererProperties_REAL.exit

22:                                               ; preds = %11
  %23 = getelementptr inbounds nuw i8, ptr %0, i64 688
  %24 = load i8, ptr %23, align 8, !range !3, !noundef !4
  %25 = trunc nuw i8 %24 to i1
  br i1 %25, label %26, label %28

26:                                               ; preds = %22
  %27 = tail call zeroext i1 (ptr, ...) @SDL_SetError_REAL(ptr noundef nonnull @.str.29) #15
  br label %SDL_GetRendererProperties_REAL.exit

28:                                               ; preds = %22
  %29 = getelementptr inbounds nuw i8, ptr %0, i64 672
  %30 = load i32, ptr %29, align 8
  %31 = icmp eq i32 %30, 0
  br i1 %31, label %32, label %SDL_GetRendererProperties_REAL.exit

32:                                               ; preds = %28
  %33 = tail call i32 @SDL_CreateProperties_REAL() #15
  store i32 %33, ptr %29, align 8
  br label %SDL_GetRendererProperties_REAL.exit

SDL_GetRendererProperties_REAL.exit:              ; preds = %20, %26, %28, %32
  %.0.i = phi i32 [ 0, %26 ], [ 0, %20 ], [ %33, %32 ], [ %30, %28 ]
  %34 = tail call zeroext i1 @SDL_SetPointerProperty_REAL(i32 noundef %.0.i, ptr noundef nonnull @.str, ptr noundef nonnull %10) #15
  br label %35

35:                                               ; preds = %2, %SDL_GetRendererProperties_REAL.exit
  ret i1 %.not
}